; ModuleID = '42/635.c'
source_filename = "42/635.c"
target datalayout = "e-m:e-p270:32:32-p271:32:32-p272:64:64-i64:64-f80:128-n8:16:32:64-S128"
target triple = "x86_64-pc-linux-gnu"

@.str = private unnamed_addr constant [4 x i8] c"%d\0A\00", align 1
@.str.1 = private unnamed_addr constant [3 x i8] c"%d\00", align 1
@.str.2 = private unnamed_addr constant [4 x i8] c"%d \00", align 1

; Function Attrs: noinline nounwind uwtable
define dso_local void @main() #0 {
  %1 = alloca i32*, align 8
  %2 = alloca i32, align 4
  %3 = alloca i32, align 4
  %4 = alloca i32, align 4
  %5 = alloca i32, align 4
  %6 = alloca [200000 x i32], align 16
  %7 = alloca i32, align 4
  store i32 0, i32* %7, align 4
  %8 = call i32 (i8*, ...) @__isoc99_scanf(i8* getelementptr inbounds ([4 x i8], [4 x i8]* @.str, i64 0, i64 0), i32* %4)
  %9 = getelementptr inbounds [200000 x i32], [200000 x i32]* %6, i64 0, i64 0
  store i32* %9, i32** %1, align 8
  store i32 0, i32* %2, align 4
  br label %10

10:                                               ; preds = %20, %0
  %11 = load i32, i32* %2, align 4
  %12 = load i32, i32* %4, align 4
  %13 = icmp slt i32 %11, %12
  br i1 %13, label %14, label %23

14:                                               ; preds = %10
  %15 = load i32*, i32** %1, align 8
  %16 = load i32, i32* %2, align 4
  %17 = sext i32 %16 to i64
  %18 = getelementptr inbounds i32, i32* %15, i64 %17
  %19 = call i32 (i8*, ...) @__isoc99_scanf(i8* getelementptr inbounds ([3 x i8], [3 x i8]* @.str.1, i64 0, i64 0), i32* %18)
  br label %20

20:                                               ; preds = %14
  %21 = load i32, i32* %2, align 4
  %22 = add nsw i32 %21, 1
  store i32 %22, i32* %2, align 4
  br label %10

23:                                               ; preds = %10
  %24 = call i32 (i8*, ...) @__isoc99_scanf(i8* getelementptr inbounds ([3 x i8], [3 x i8]* @.str.1, i64 0, i64 0), i32* %5)
  store i32 0, i32* %2, align 4
  %25 = getelementptr inbounds [200000 x i32], [200000 x i32]* %6, i64 0, i64 0
  store i32* %25, i32** %1, align 8
  br label %26

26:                                               ; preds = %64, %23
  %27 = load i32, i32* %2, align 4
  %28 = load i32, i32* %4, align 4
  %29 = icmp slt i32 %27, %28
  br i1 %29, label %30, label %67

30:                                               ; preds = %26
  %31 = load i32*, i32** %1, align 8
  %32 = load i32, i32* %2, align 4
  %33 = sext i32 %32 to i64
  %34 = getelementptr inbounds i32, i32* %31, i64 %33
  %35 = load i32, i32* %34, align 4
  %36 = load i32, i32* %5, align 4
  %37 = icmp eq i32 %35, %36
  br i1 %37, label %38, label %63

38:                                               ; preds = %30
  %39 = load i32, i32* %7, align 4
  %40 = add nsw i32 %39, 1
  store i32 %40, i32* %7, align 4
  %41 = load i32, i32* %2, align 4
  store i32 %41, i32* %3, align 4
  br label %42

42:                                               ; preds = %57, %38
  %43 = load i32, i32* %3, align 4
  %44 = load i32, i32* %4, align 4
  %45 = icmp slt i32 %43, %44
  br i1 %45, label %46, label %60

46:                                               ; preds = %42
  %47 = load i32*, i32** %1, align 8
  %48 = load i32, i32* %3, align 4
  %49 = sext i32 %48 to i64
  %50 = getelementptr inbounds i32, i32* %47, i64 %49
  %51 = getelementptr inbounds i32, i32* %50, i64 1
  %52 = load i32, i32* %51, align 4
  %53 = load i32*, i32** %1, align 8
  %54 = load i32, i32* %3, align 4
  %55 = sext i32 %54 to i64
  %56 = getelementptr inbounds i32, i32* %53, i64 %55
  store i32 %52, i32* %56, align 4
  br label %57

57:                                               ; preds = %46
  %58 = load i32, i32* %3, align 4
  %59 = add nsw i32 %58, 1
  store i32 %59, i32* %3, align 4
  br label %42

60:                                               ; preds = %42
  %61 = load i32, i32* %2, align 4
  %62 = add nsw i32 %61, -1
  store i32 %62, i32* %2, align 4
  br label %63

63:                                               ; preds = %60, %30
  br label %64

64:                                               ; preds = %63
  %65 = load i32, i32* %2, align 4
  %66 = add nsw i32 %65, 1
  store i32 %66, i32* %2, align 4
  br label %26

67:                                               ; preds = %26
  store i32 0, i32* %2, align 4
  %68 = getelementptr inbounds [200000 x i32], [200000 x i32]* %6, i64 0, i64 0
  store i32* %68, i32** %1, align 8
  br label %69

69:                                               ; preds = %83, %67
  %70 = load i32, i32* %2, align 4
  %71 = load i32, i32* %4, align 4
  %72 = load i32, i32* %7, align 4
  %73 = sub nsw i32 %71, %72
  %74 = sub nsw i32 %73, 1
  %75 = icmp slt i32 %70, %74
  br i1 %75, label %76, label %86

76:                                               ; preds = %69
  %77 = load i32*, i32** %1, align 8
  %78 = load i32, i32* %2, align 4
  %79 = sext i32 %78 to i64
  %80 = getelementptr inbounds i32, i32* %77, i64 %79
  %81 = load i32, i32* %80, align 4
  %82 = call i32 (i8*, ...) @printf(i8* getelementptr inbounds ([4 x i8], [4 x i8]* @.str.2, i64 0, i64 0), i32 %81)
  br label %83

83:                                               ; preds = %76
  %84 = load i32, i32* %2, align 4
  %85 = add nsw i32 %84, 1
  store i32 %85, i32* %2, align 4
  br label %69

86:                                               ; preds = %69
  %87 = load i32*, i32** %1, align 8
  %88 = load i32, i32* %4, align 4
  %89 = sext i32 %88 to i64
  %90 = getelementptr inbounds i32, i32* %87, i64 %89
  %91 = load i32, i32* %7, align 4
  %92 = sext i32 %91 to i64
  %93 = sub i64 0, %92
  %94 = getelementptr inbounds i32, i32* %90, i64 %93
  %95 = getelementptr inbounds i32, i32* %94, i64 -1
  %96 = load i32, i32* %95, align 4
  %97 = call i32 (i8*, ...) @printf(i8* getelementptr inbounds ([3 x i8], [3 x i8]* @.str.1, i64 0, i64 0), i32 %96)
  ret void
}

declare dso_local i32 @__isoc99_scanf(i8*, ...) #1

declare dso_local i32 @printf(i8*, ...) #1


!llvm.module.flags = !{!0}
!llvm.ident = !{!1}

!0 = !{i32 1, !"wchar_size", i32 4}
!1 = !{!"clang version 10.0.0-4ubuntu1 "}
